; ModuleID = 'source-C-CXX/42/1018.c'
source_filename = "source-C-CXX/42/1018.c"
target datalayout = "e-m:e-p270:32:32-p271:32:32-p272:64:64-i64:64-f80:128-n8:16:32:64-S128"
target triple = "x86_64-pc-linux-gnu"

@.str = private unnamed_addr constant [4 x i8] c"%d\0A\00", align 1
@.str.1 = private unnamed_addr constant [7 x i8] c"%d %d\0A\00", align 1

; Function Attrs: nofree nounwind sspstrong uwtable
define dso_local i32 @main() local_unnamed_addr #0 {
  %1 = alloca i32, align 4
  %2 = bitcast i32* %1 to i8*
  call void @llvm.lifetime.start.p0i8(i64 4, i8* nonnull %2) #4
  %3 = call i32 (i8*, ...) @__isoc99_scanf(i8* getelementptr inbounds ([4 x i8], [4 x i8]* @.str, i64 0, i64 0), i32* nonnull %1)
  %4 = load i32, i32* %1, align 4, !tbaa !5
  %5 = icmp slt i32 %4, 3
  br i1 %5, label %40, label %6

6:                                                ; preds = %0, %36
  %7 = phi i32 [ %37, %36 ], [ %4, %0 ]
  %8 = phi i32 [ %38, %36 ], [ 3, %0 ]
  %9 = lshr i32 %8, 1
  %10 = call i32 @llvm.umax.i32(i32 %9, i32 2)
  %11 = icmp ult i32 %8, 4
  br i1 %11, label %19, label %15

12:                                               ; preds = %15
  %13 = add nuw nsw i32 %16, 1
  %14 = icmp eq i32 %16, %10
  br i1 %14, label %19, label %15, !llvm.loop !9

15:                                               ; preds = %6, %12
  %16 = phi i32 [ %13, %12 ], [ 2, %6 ]
  %17 = urem i32 %8, %16
  %18 = icmp eq i32 %17, 0
  br i1 %18, label %36, label %12

19:                                               ; preds = %12, %6
  %20 = sub nsw i32 %7, %8
  %21 = icmp slt i32 %20, 6
  br i1 %21, label %31, label %22

22:                                               ; preds = %19
  %23 = lshr i32 %20, 1
  br label %27

24:                                               ; preds = %27
  %25 = add nuw nsw i32 %28, 1
  %26 = icmp eq i32 %28, %23
  br i1 %26, label %31, label %27, !llvm.loop !11

27:                                               ; preds = %22, %24
  %28 = phi i32 [ %25, %24 ], [ 3, %22 ]
  %29 = srem i32 %20, %28
  %30 = icmp eq i32 %29, 0
  br i1 %30, label %36, label %24

31:                                               ; preds = %24, %19
  %32 = icmp sgt i32 %8, %20
  br i1 %32, label %36, label %33

33:                                               ; preds = %31
  %34 = call i32 (i8*, ...) @printf(i8* nonnull dereferenceable(1) getelementptr inbounds ([7 x i8], [7 x i8]* @.str.1, i64 0, i64 0), i32 %8, i32 %20)
  %35 = load i32, i32* %1, align 4, !tbaa !5
  br label %36

36:                                               ; preds = %15, %27, %33, %31
  %37 = phi i32 [ %35, %33 ], [ %7, %31 ], [ %7, %27 ], [ %7, %15 ]
  %38 = add nuw nsw i32 %8, 1
  %39 = icmp sgt i32 %37, %8
  br i1 %39, label %6, label %40, !llvm.loop !12

40:                                               ; preds = %36, %0
  call void @llvm.lifetime.end.p0i8(i64 4, i8* nonnull %2) #4
  ret i32 0
}

; Function Attrs: argmemonly mustprogress nofree nosync nounwind willreturn
declare void @llvm.lifetime.start.p0i8(i64 immarg, i8* nocapture) #1

; Function Attrs: nofree nounwind
declare noundef i32 @__isoc99_scanf(i8* nocapture noundef readonly, ...) local_unnamed_addr #2

; Function Attrs: nofree nounwind
declare noundef i32 @printf(i8* nocapture noundef readonly, ...) local_unnamed_addr #2

; Function Attrs: argmemonly mustprogress nofree nosync nounwind willreturn
declare void @llvm.lifetime.end.p0i8(i64 immarg, i8* nocapture) #1

; Function Attrs: nofree nosync nounwind readnone speculatable willreturn
declare i32 @llvm.umax.i32(i32, i32) #3


!llvm.module.flags = !{!0, !1, !2, !3}
!llvm.ident = !{!4}

!0 = !{i32 1, !"wchar_size", i32 4}
!1 = !{i32 7, !"PIC Level", i32 2}
!2 = !{i32 7, !"PIE Level", i32 2}
!3 = !{i32 7, !"uwtable", i32 1}
!4 = !{!"clang version 13.0.0"}
!5 = !{!6, !6, i64 0}
!6 = !{!"int", !7, i64 0}
!7 = !{!"omnipotent char", !8, i64 0}
!8 = !{!"Simple C/C++ TBAA"}
!9 = distinct !{!9, !10}
!10 = !{!"llvm.loop.mustprogress"}
!11 = distinct !{!11, !10}
!12 = distinct !{!12, !10}
